; ModuleID = '467.c'
source_filename = "467.c"
target datalayout = "e-m:e-p270:32:32-p271:32:32-p272:64:64-i64:64-f80:128-n8:16:32:64-S128"
target triple = "x86_64-pc-linux-gnu"

%struct.student = type { [20 x i8], i32, i32, i8, i8, i32 }

@.str = private unnamed_addr constant [3 x i8] c"%d\00", align 1
@.str.1 = private unnamed_addr constant [18 x i8] c"%s %d %d %c %c %d\00", align 1
@.str.2 = private unnamed_addr constant [10 x i8] c"%s\0A%d\0A%d\0A\00", align 1

; Function Attrs: noinline nounwind uwtable
define dso_local i32 @main() #0 {
  %1 = alloca i32, align 4
  %2 = alloca i32, align 4
  %3 = alloca i32, align 4
  %4 = alloca [100 x i32], align 16
  %5 = alloca %struct.student*, align 8
  %6 = alloca i32, align 4
  %7 = alloca i32, align 4
  %8 = alloca i32, align 4
  store i32 0, i32* %1, align 4
  %9 = bitcast [100 x i32]* %4 to i8*
  call void @llvm.memset.p0i8.i64(i8* align 16 %9, i8 0, i64 400, i1 false)
  %10 = call i32 (i8*, ...) @__isoc99_scanf(i8* getelementptr inbounds ([3 x i8], [3 x i8]* @.str, i64 0, i64 0), i32* %3)
  %11 = load i32, i32* %3, align 4
  %12 = sext i32 %11 to i64
  %13 = mul i64 36, %12
  %14 = call noalias i8* @malloc(i64 %13) #4
  %15 = bitcast i8* %14 to %struct.student*
  store %struct.student* %15, %struct.student** %5, align 8
  store i32 0, i32* %2, align 4
  br label %16

16:                                               ; preds = %53, %0
  %17 = load i32, i32* %2, align 4
  %18 = load i32, i32* %3, align 4
  %19 = icmp slt i32 %17, %18
  br i1 %19, label %20, label %56

20:                                               ; preds = %16
  %21 = load %struct.student*, %struct.student** %5, align 8
  %22 = load i32, i32* %2, align 4
  %23 = sext i32 %22 to i64
  %24 = getelementptr inbounds %struct.student, %struct.student* %21, i64 %23
  %25 = getelementptr inbounds %struct.student, %struct.student* %24, i32 0, i32 0
  %26 = getelementptr inbounds [20 x i8], [20 x i8]* %25, i64 0, i64 0
  %27 = load %struct.student*, %struct.student** %5, align 8
  %28 = load i32, i32* %2, align 4
  %29 = sext i32 %28 to i64
  %30 = getelementptr inbounds %struct.student, %struct.student* %27, i64 %29
  %31 = getelementptr inbounds %struct.student, %struct.student* %30, i32 0, i32 1
  %32 = load %struct.student*, %struct.student** %5, align 8
  %33 = load i32, i32* %2, align 4
  %34 = sext i32 %33 to i64
  %35 = getelementptr inbounds %struct.student, %struct.student* %32, i64 %34
  %36 = getelementptr inbounds %struct.student, %struct.student* %35, i32 0, i32 2
  %37 = load %struct.student*, %struct.student** %5, align 8
  %38 = load i32, i32* %2, align 4
  %39 = sext i32 %38 to i64
  %40 = getelementptr inbounds %struct.student, %struct.student* %37, i64 %39
  %41 = getelementptr inbounds %struct.student, %struct.student* %40, i32 0, i32 3
  %42 = load %struct.student*, %struct.student** %5, align 8
  %43 = load i32, i32* %2, align 4
  %44 = sext i32 %43 to i64
  %45 = getelementptr inbounds %struct.student, %struct.student* %42, i64 %44
  %46 = getelementptr inbounds %struct.student, %struct.student* %45, i32 0, i32 4
  %47 = load %struct.student*, %struct.student** %5, align 8
  %48 = load i32, i32* %2, align 4
  %49 = sext i32 %48 to i64
  %50 = getelementptr inbounds %struct.student, %struct.student* %47, i64 %49
  %51 = getelementptr inbounds %struct.student, %struct.student* %50, i32 0, i32 5
  %52 = call i32 (i8*, ...) @__isoc99_scanf(i8* getelementptr inbounds ([18 x i8], [18 x i8]* @.str.1, i64 0, i64 0), i8* %26, i32* %31, i32* %36, i8* %41, i8* %46, i32* %51)
  br label %53

53:                                               ; preds = %20
  %54 = load i32, i32* %2, align 4
  %55 = add nsw i32 %54, 1
  store i32 %55, i32* %2, align 4
  br label %16

56:                                               ; preds = %16
  store i32 0, i32* %2, align 4
  br label %57

57:                                               ; preds = %166, %56
  %58 = load i32, i32* %2, align 4
  %59 = load i32, i32* %3, align 4
  %60 = icmp slt i32 %58, %59
  br i1 %60, label %61, label %169

61:                                               ; preds = %57
  %62 = load %struct.student*, %struct.student** %5, align 8
  %63 = load i32, i32* %2, align 4
  %64 = sext i32 %63 to i64
  %65 = getelementptr inbounds %struct.student, %struct.student* %62, i64 %64
  %66 = getelementptr inbounds %struct.student, %struct.student* %65, i32 0, i32 1
  %67 = load i32, i32* %66, align 4
  %68 = icmp sgt i32 %67, 80
  br i1 %68, label %69, label %83

69:                                               ; preds = %61
  %70 = load %struct.student*, %struct.student** %5, align 8
  %71 = load i32, i32* %2, align 4
  %72 = sext i32 %71 to i64
  %73 = getelementptr inbounds %struct.student, %struct.student* %70, i64 %72
  %74 = getelementptr inbounds %struct.student, %struct.student* %73, i32 0, i32 5
  %75 = load i32, i32* %74, align 4
  %76 = icmp sge i32 %75, 1
  br i1 %76, label %77, label %83

77:                                               ; preds = %69
  %78 = load i32, i32* %2, align 4
  %79 = sext i32 %78 to i64
  %80 = getelementptr inbounds [100 x i32], [100 x i32]* %4, i64 0, i64 %79
  %81 = load i32, i32* %80, align 4
  %82 = add nsw i32 %81, 8000
  store i32 %82, i32* %80, align 4
  br label %83

83:                                               ; preds = %77, %69, %61
  %84 = load %struct.student*, %struct.student** %5, align 8
  %85 = load i32, i32* %2, align 4
  %86 = sext i32 %85 to i64
  %87 = getelementptr inbounds %struct.student, %struct.student* %84, i64 %86
  %88 = getelementptr inbounds %struct.student, %struct.student* %87, i32 0, i32 1
  %89 = load i32, i32* %88, align 4
  %90 = icmp sgt i32 %89, 85
  br i1 %90, label %91, label %105

91:                                               ; preds = %83
  %92 = load %struct.student*, %struct.student** %5, align 8
  %93 = load i32, i32* %2, align 4
  %94 = sext i32 %93 to i64
  %95 = getelementptr inbounds %struct.student, %struct.student* %92, i64 %94
  %96 = getelementptr inbounds %struct.student, %struct.student* %95, i32 0, i32 2
  %97 = load i32, i32* %96, align 4
  %98 = icmp sgt i32 %97, 80
  br i1 %98, label %99, label %105

99:                                               ; preds = %91
  %100 = load i32, i32* %2, align 4
  %101 = sext i32 %100 to i64
  %102 = getelementptr inbounds [100 x i32], [100 x i32]* %4, i64 0, i64 %101
  %103 = load i32, i32* %102, align 4
  %104 = add nsw i32 %103, 4000
  store i32 %104, i32* %102, align 4
  br label %105

105:                                              ; preds = %99, %91, %83
  %106 = load %struct.student*, %struct.student** %5, align 8
  %107 = load i32, i32* %2, align 4
  %108 = sext i32 %107 to i64
  %109 = getelementptr inbounds %struct.student, %struct.student* %106, i64 %108
  %110 = getelementptr inbounds %struct.student, %struct.student* %109, i32 0, i32 1
  %111 = load i32, i32* %110, align 4
  %112 = icmp sgt i32 %111, 90
  br i1 %112, label %113, label %119

113:                                              ; preds = %105
  %114 = load i32, i32* %2, align 4
  %115 = sext i32 %114 to i64
  %116 = getelementptr inbounds [100 x i32], [100 x i32]* %4, i64 0, i64 %115
  %117 = load i32, i32* %116, align 4
  %118 = add nsw i32 %117, 2000
  store i32 %118, i32* %116, align 4
  br label %119

119:                                              ; preds = %113, %105
  %120 = load %struct.student*, %struct.student** %5, align 8
  %121 = load i32, i32* %2, align 4
  %122 = sext i32 %121 to i64
  %123 = getelementptr inbounds %struct.student, %struct.student* %120, i64 %122
  %124 = getelementptr inbounds %struct.student, %struct.student* %123, i32 0, i32 1
  %125 = load i32, i32* %124, align 4
  %126 = icmp sgt i32 %125, 85
  br i1 %126, label %127, label %142

127:                                              ; preds = %119
  %128 = load %struct.student*, %struct.student** %5, align 8
  %129 = load i32, i32* %2, align 4
  %130 = sext i32 %129 to i64
  %131 = getelementptr inbounds %struct.student, %struct.student* %128, i64 %130
  %132 = getelementptr inbounds %struct.student, %struct.student* %131, i32 0, i32 4
  %133 = load i8, i8* %132, align 1
  %134 = sext i8 %133 to i32
  %135 = icmp eq i32 %134, 89
  br i1 %135, label %136, label %142

136:                                              ; preds = %127
  %137 = load i32, i32* %2, align 4
  %138 = sext i32 %137 to i64
  %139 = getelementptr inbounds [100 x i32], [100 x i32]* %4, i64 0, i64 %138
  %140 = load i32, i32* %139, align 4
  %141 = add nsw i32 %140, 1000
  store i32 %141, i32* %139, align 4
  br label %142

142:                                              ; preds = %136, %127, %119
  %143 = load %struct.student*, %struct.student** %5, align 8
  %144 = load i32, i32* %2, align 4
  %145 = sext i32 %144 to i64
  %146 = getelementptr inbounds %struct.student, %struct.student* %143, i64 %145
  %147 = getelementptr inbounds %struct.student, %struct.student* %146, i32 0, i32 2
  %148 = load i32, i32* %147, align 4
  %149 = icmp sgt i32 %148, 80
  br i1 %149, label %150, label %165

150:                                              ; preds = %142
  %151 = load %struct.student*, %struct.student** %5, align 8
  %152 = load i32, i32* %2, align 4
  %153 = sext i32 %152 to i64
  %154 = getelementptr inbounds %struct.student, %struct.student* %151, i64 %153
  %155 = getelementptr inbounds %struct.student, %struct.student* %154, i32 0, i32 3
  %156 = load i8, i8* %155, align 4
  %157 = sext i8 %156 to i32
  %158 = icmp eq i32 %157, 89
  br i1 %158, label %159, label %165

159:                                              ; preds = %150
  %160 = load i32, i32* %2, align 4
  %161 = sext i32 %160 to i64
  %162 = getelementptr inbounds [100 x i32], [100 x i32]* %4, i64 0, i64 %161
  %163 = load i32, i32* %162, align 4
  %164 = add nsw i32 %163, 850
  store i32 %164, i32* %162, align 4
  br label %165

165:                                              ; preds = %159, %150, %142
  br label %166

166:                                              ; preds = %165
  %167 = load i32, i32* %2, align 4
  %168 = add nsw i32 %167, 1
  store i32 %168, i32* %2, align 4
  br label %57

169:                                              ; preds = %57
  %170 = getelementptr inbounds [100 x i32], [100 x i32]* %4, i64 0, i64 0
  %171 = load i32, i32* %170, align 16
  store i32 %171, i32* %6, align 4
  store i32 0, i32* %7, align 4
  store i32 0, i32* %8, align 4
  store i32 0, i32* %2, align 4
  br label %172

172:                                              ; preds = %196, %169
  %173 = load i32, i32* %2, align 4
  %174 = load i32, i32* %3, align 4
  %175 = icmp slt i32 %173, %174
  br i1 %175, label %176, label %199

176:                                              ; preds = %172
  %177 = load i32, i32* %2, align 4
  %178 = sext i32 %177 to i64
  %179 = getelementptr inbounds [100 x i32], [100 x i32]* %4, i64 0, i64 %178
  %180 = load i32, i32* %179, align 4
  %181 = load i32, i32* %8, align 4
  %182 = add nsw i32 %181, %180
  store i32 %182, i32* %8, align 4
  %183 = load i32, i32* %6, align 4
  %184 = load i32, i32* %2, align 4
  %185 = sext i32 %184 to i64
  %186 = getelementptr inbounds [100 x i32], [100 x i32]* %4, i64 0, i64 %185
  %187 = load i32, i32* %186, align 4
  %188 = icmp slt i32 %183, %187
  br i1 %188, label %189, label %195

189:                                              ; preds = %176
  %190 = load i32, i32* %2, align 4
  %191 = sext i32 %190 to i64
  %192 = getelementptr inbounds [100 x i32], [100 x i32]* %4, i64 0, i64 %191
  %193 = load i32, i32* %192, align 4
  store i32 %193, i32* %6, align 4
  %194 = load i32, i32* %2, align 4
  store i32 %194, i32* %7, align 4
  br label %195

195:                                              ; preds = %189, %176
  br label %196

196:                                              ; preds = %195
  %197 = load i32, i32* %2, align 4
  %198 = add nsw i32 %197, 1
  store i32 %198, i32* %2, align 4
  br label %172

199:                                              ; preds = %172
  %200 = load %struct.student*, %struct.student** %5, align 8
  %201 = load i32, i32* %7, align 4
  %202 = sext i32 %201 to i64
  %203 = getelementptr inbounds %struct.student, %struct.student* %200, i64 %202
  %204 = getelementptr inbounds %struct.student, %struct.student* %203, i32 0, i32 0
  %205 = getelementptr inbounds [20 x i8], [20 x i8]* %204, i64 0, i64 0
  %206 = load i32, i32* %6, align 4
  %207 = load i32, i32* %8, align 4
  %208 = call i32 (i8*, ...) @printf(i8* getelementptr inbounds ([10 x i8], [10 x i8]* @.str.2, i64 0, i64 0), i8* %205, i32 %206, i32 %207)
  ret i32 0
}

; Function Attrs: argmemonly nounwind willreturn
declare void @llvm.memset.p0i8.i64(i8* nocapture writeonly, i8, i64, i1 immarg) #1

declare dso_local i32 @__isoc99_scanf(i8*, ...) #2

; Function Attrs: nounwind
declare dso_local noalias i8* @malloc(i64) #3

declare dso_local i32 @printf(i8*, ...) #2


!llvm.module.flags = !{!0}
!llvm.ident = !{!1}

!0 = !{i32 1, !"wchar_size", i32 4}
!1 = !{!"clang version 10.0.0-4ubuntu1 "}
